target datalayout = "e-m:e-p270:32:32-p271:32:32-p272:64:64-i64:64-i128:128-f80:128-n8:16:32:64-S128"
target triple = "x86_64-pc-linux-gnu"

%struct.PNGDSPContext = type { ptr, ptr }
%struct.AVCodecContext = type { ptr, i32, i32, ptr, i32, i32, ptr, ptr, ptr, i64, i32, i32, ptr, i32, %struct.AVRational, %struct.AVRational, %struct.AVRational, i32, i32, i32, i32, i32, %struct.AVRational, i32, i32, i32, i32, i32, i32, i32, i32, i32, i32, i32, ptr, ptr, i32, float, float, float, float, float, float, float, float, float, i32, i32, i32, i32, i32, i32, i32, i32, i32, i32, i32, i32, ptr, ptr, ptr, i32, i32, i32, i32, i32, i32, i32, i32, i32, i32, %struct.AVChannelLayout, i32, i32, i32, i32, i32, i32, i32, i32, ptr, i32, i32, i32, float, float, i32, i32, i32, i32, i32, ptr, i64, i64, float, float, i32, i32, ptr, ptr, i32, i32, i32, i32, i32, ptr, ptr, ptr, ptr, i32, i32, [8 x i64], i32, i32, i32, i32, i32, i32, i32, ptr, ptr, i32, i32, i32, i32, i32, i32, i32, i32, i32, i32, ptr, ptr, i32, i32, ptr, ptr, ptr, ptr, i32, i32, i64, i32, i32, i64, ptr, i64, ptr, i32, ptr, i32 }
%struct.AVRational = type { i32, i32 }
%struct.AVChannelLayout = type { i32, i32, %union.anon.0, ptr }
%union.anon.0 = type { i64 }
%struct.PNGDecContext = type { %struct.PNGDSPContext, ptr, %struct.GetByteContext, %struct.ProgressFrame, %struct.ProgressFrame, ptr, [82 x i8], ptr, i64, i32, i32, [2 x i32], [3 x [2 x i32]], i32, i32, i32, i32, i32, i32, i32, i32, i32, i32, [3 x [2 x i16]], [2 x i16], i32, i32, i32, i32, i32, i32, i32, i32, i32, i32, i8, i8, i32, i32, i32, i32, i32, i32, i32, i32, i32, [6 x i8], i32, [256 x i32], ptr, ptr, i32, ptr, i32, ptr, i32, i32, i32, i32, i32, i32, %struct.FFZStream }
%struct.GetByteContext = type { ptr, ptr, ptr }
%struct.ProgressFrame = type { ptr, ptr }
%struct.FFZStream = type { %struct.z_stream_s, i32 }
%struct.z_stream_s = type { ptr, i32, i64, ptr, i32, i64, ptr, ptr, ptr, ptr, ptr, i32, i64, i64 }

; Function Attrs: cold nounwind optsize uwtable
define internal i32 @png_dec_init(ptr noundef %0) #4 {
  %2 = alloca ptr, align 8
  %3 = alloca ptr, align 8
  store ptr %0, ptr %2, align 8, !tbaa !33
  call void @llvm.lifetime.start.p0(i64 8, ptr %3) #13
  %4 = load ptr, ptr %2, align 8, !tbaa !33
  %5 = getelementptr inbounds nuw %struct.AVCodecContext, ptr %4, i32 0, i32 6
  %6 = load ptr, ptr %5, align 8, !tbaa !35
  store ptr %6, ptr %3, align 8, !tbaa !53
  %7 = load ptr, ptr %2, align 8, !tbaa !33
  %8 = load ptr, ptr %3, align 8, !tbaa !53
  %9 = getelementptr inbounds nuw %struct.PNGDecContext, ptr %8, i32 0, i32 1
  store ptr %7, ptr %9, align 8, !tbaa !77
  %10 = load ptr, ptr %3, align 8, !tbaa !53
  %11 = getelementptr inbounds nuw %struct.PNGDecContext, ptr %10, i32 0, i32 0
  call void @ff_pngdsp_init(ptr noundef %11)
  %12 = load ptr, ptr %3, align 8, !tbaa !53
  %13 = getelementptr inbounds nuw %struct.PNGDecContext, ptr %12, i32 0, i32 61
  %14 = load ptr, ptr %2, align 8, !tbaa !33
  %15 = call i32 @ff_inflate_init(ptr noundef %13, ptr noundef %14)
  call void @llvm.lifetime.end.p0(i64 8, ptr %3) #13
  ret i32 %15
}