; Function Attrs: cold nounwind optsize uwtable
define internal i32 @png_dec_init(ptr noundef %0) #5 {
  %2 = getelementptr inbounds nuw i8, ptr %0, i64 32
  %3 = load ptr, ptr %2, align 8, !tbaa !28
  %4 = getelementptr inbounds nuw i8, ptr %3, i64 16
  store ptr %0, ptr %4, align 8, !tbaa !68
  tail call void @ff_pngdsp_init(ptr noundef %3) #13
  %5 = getelementptr inbounds nuw i8, ptr %3, i64 1480
  %6 = tail call i32 @ff_inflate_init(ptr noundef nonnull %5, ptr noundef %0) #13
  ret i32 %6
}